; ModuleID = '7/757.c'
source_filename = "7/757.c"
target datalayout = "e-m:e-p270:32:32-p271:32:32-p272:64:64-i64:64-f80:128-n8:16:32:64-S128"
target triple = "x86_64-pc-linux-gnu"

@.str = private unnamed_addr constant [7 x i8] c"%s%s%s\00", align 1
@.str.1 = private unnamed_addr constant [3 x i8] c"%c\00", align 1
@.str.2 = private unnamed_addr constant [3 x i8] c"%s\00", align 1

; Function Attrs: noinline nounwind uwtable
define dso_local i32 @main() #0 {
  %1 = alloca i32, align 4
  %2 = alloca i32, align 4
  %3 = alloca i32, align 4
  %4 = alloca i32, align 4
  %5 = alloca [1000 x i8], align 16
  %6 = alloca [100 x i8], align 16
  %7 = alloca [100 x i8], align 16
  store i32 0, i32* %1, align 4
  store i32 0, i32* %3, align 4
  %8 = getelementptr inbounds [1000 x i8], [1000 x i8]* %5, i64 0, i64 0
  %9 = getelementptr inbounds [100 x i8], [100 x i8]* %6, i64 0, i64 0
  %10 = getelementptr inbounds [100 x i8], [100 x i8]* %7, i64 0, i64 0
  %11 = call i32 (i8*, ...) @__isoc99_scanf(i8* getelementptr inbounds ([7 x i8], [7 x i8]* @.str, i64 0, i64 0), i8* %8, i8* %9, i8* %10)
  store i32 0, i32* %2, align 4
  br label %12

12:                                               ; preds = %43, %0
  %13 = load i32, i32* %2, align 4
  %14 = sext i32 %13 to i64
  %15 = getelementptr inbounds [1000 x i8], [1000 x i8]* %5, i64 0, i64 %14
  %16 = load i8, i8* %15, align 1
  %17 = sext i8 %16 to i32
  %18 = icmp ne i32 %17, 0
  br i1 %18, label %19, label %46

19:                                               ; preds = %12
  %20 = load i32, i32* %3, align 4
  %21 = getelementptr inbounds [100 x i8], [100 x i8]* %6, i64 0, i64 0
  %22 = call i64 @strlen(i8* %21) #3
  %23 = trunc i64 %22 to i32
  %24 = icmp eq i32 %20, %23
  br i1 %24, label %25, label %26

25:                                               ; preds = %19
  br label %46

26:                                               ; preds = %19
  %27 = load i32, i32* %2, align 4
  %28 = sext i32 %27 to i64
  %29 = getelementptr inbounds [1000 x i8], [1000 x i8]* %5, i64 0, i64 %28
  %30 = load i8, i8* %29, align 1
  %31 = sext i8 %30 to i32
  %32 = load i32, i32* %3, align 4
  %33 = sext i32 %32 to i64
  %34 = getelementptr inbounds [100 x i8], [100 x i8]* %6, i64 0, i64 %33
  %35 = load i8, i8* %34, align 1
  %36 = sext i8 %35 to i32
  %37 = icmp eq i32 %31, %36
  br i1 %37, label %38, label %41

38:                                               ; preds = %26
  %39 = load i32, i32* %3, align 4
  %40 = add nsw i32 %39, 1
  store i32 %40, i32* %3, align 4
  br label %42

41:                                               ; preds = %26
  store i32 0, i32* %3, align 4
  br label %42

42:                                               ; preds = %41, %38
  br label %43

43:                                               ; preds = %42
  %44 = load i32, i32* %2, align 4
  %45 = add nsw i32 %44, 1
  store i32 %45, i32* %2, align 4
  br label %12

46:                                               ; preds = %25, %12
  %47 = load i32, i32* %3, align 4
  %48 = getelementptr inbounds [100 x i8], [100 x i8]* %6, i64 0, i64 0
  %49 = call i64 @strlen(i8* %48) #3
  %50 = trunc i64 %49 to i32
  %51 = icmp eq i32 %47, %50
  br i1 %51, label %52, label %90

52:                                               ; preds = %46
  store i32 0, i32* %4, align 4
  br label %53

53:                                               ; preds = %66, %52
  %54 = load i32, i32* %4, align 4
  %55 = load i32, i32* %2, align 4
  %56 = load i32, i32* %3, align 4
  %57 = sub nsw i32 %55, %56
  %58 = icmp slt i32 %54, %57
  br i1 %58, label %59, label %69

59:                                               ; preds = %53
  %60 = load i32, i32* %4, align 4
  %61 = sext i32 %60 to i64
  %62 = getelementptr inbounds [1000 x i8], [1000 x i8]* %5, i64 0, i64 %61
  %63 = load i8, i8* %62, align 1
  %64 = sext i8 %63 to i32
  %65 = call i32 (i8*, ...) @printf(i8* getelementptr inbounds ([3 x i8], [3 x i8]* @.str.1, i64 0, i64 0), i32 %64)
  br label %66

66:                                               ; preds = %59
  %67 = load i32, i32* %4, align 4
  %68 = add nsw i32 %67, 1
  store i32 %68, i32* %4, align 4
  br label %53

69:                                               ; preds = %53
  %70 = getelementptr inbounds [100 x i8], [100 x i8]* %7, i64 0, i64 0
  %71 = call i32 (i8*, ...) @printf(i8* getelementptr inbounds ([3 x i8], [3 x i8]* @.str.2, i64 0, i64 0), i8* %70)
  %72 = load i32, i32* %2, align 4
  store i32 %72, i32* %4, align 4
  br label %73

73:                                               ; preds = %86, %69
  %74 = load i32, i32* %4, align 4
  %75 = getelementptr inbounds [1000 x i8], [1000 x i8]* %5, i64 0, i64 0
  %76 = call i64 @strlen(i8* %75) #3
  %77 = trunc i64 %76 to i32
  %78 = icmp slt i32 %74, %77
  br i1 %78, label %79, label %89

79:                                               ; preds = %73
  %80 = load i32, i32* %4, align 4
  %81 = sext i32 %80 to i64
  %82 = getelementptr inbounds [1000 x i8], [1000 x i8]* %5, i64 0, i64 %81
  %83 = load i8, i8* %82, align 1
  %84 = sext i8 %83 to i32
  %85 = call i32 (i8*, ...) @printf(i8* getelementptr inbounds ([3 x i8], [3 x i8]* @.str.1, i64 0, i64 0), i32 %84)
  br label %86

86:                                               ; preds = %79
  %87 = load i32, i32* %4, align 4
  %88 = add nsw i32 %87, 1
  store i32 %88, i32* %4, align 4
  br label %73

89:                                               ; preds = %73
  br label %93

90:                                               ; preds = %46
  %91 = getelementptr inbounds [1000 x i8], [1000 x i8]* %5, i64 0, i64 0
  %92 = call i32 (i8*, ...) @printf(i8* getelementptr inbounds ([3 x i8], [3 x i8]* @.str.2, i64 0, i64 0), i8* %91)
  br label %93

93:                                               ; preds = %90, %89
  ret i32 0
}

declare dso_local i32 @__isoc99_scanf(i8*, ...) #1

; Function Attrs: nounwind readonly
declare dso_local i64 @strlen(i8*) #2

declare dso_local i32 @printf(i8*, ...) #1


!llvm.module.flags = !{!0}
!llvm.ident = !{!1}

!0 = !{i32 1, !"wchar_size", i32 4}
!1 = !{!"clang version 10.0.0-4ubuntu1 "}
